target datalayout = "e-m:e-p270:32:32-p271:32:32-p272:64:64-i64:64-i128:128-f80:128-n8:16:32:64-S128"
target triple = "x86_64-pc-linux-gnu"

%struct.PJconsts = type { ptr, ptr, ptr, ptr, ptr, ptr, ptr, ptr, ptr, ptr, ptr, ptr, i32, ptr, ptr, ptr, ptr, ptr, ptr, ptr, ptr, double, double, double, double, double, double, double, double, double, double, double, double, double, double, double, double, double, double, double, double, double, double, i32, i32, i32, i32, i32, i32, i32, i32, i32, i32, i32, ptr, ptr, ptr, ptr, ptr, ptr, double, double, double, double, double, double, double, double, double, double, double, i32, [7 x double], i32, ptr, ptr, double, double, i32, [4 x i8], %"class.std::shared_ptr", i8, double, i8, %"class.std::__cxx11::basic_string", %"class.std::__cxx11::basic_string", %"class.std::__cxx11::basic_string", i8, %"class.std::vector", i32, %"class.std::vector.3", i32, i8, i8, i8, ptr }
%"class.std::shared_ptr" = type { %"class.std::__shared_ptr" }
%"class.std::__shared_ptr" = type { ptr, %"class.std::__shared_count" }
%"class.std::__shared_count" = type { ptr }
%"class.std::__cxx11::basic_string" = type { %"struct.std::__cxx11::basic_string<char>::_Alloc_hider", i64, %union.anon }
%"struct.std::__cxx11::basic_string<char>::_Alloc_hider" = type { ptr }
%union.anon = type { i64, [8 x i8] }
%"class.std::vector" = type { %"struct.std::_Vector_base" }
%"struct.std::_Vector_base" = type { %"struct.std::_Vector_base<osgeo::proj::operation::GridDescription, std::allocator<osgeo::proj::operation::GridDescription>>::_Vector_impl" }
%"struct.std::_Vector_base<osgeo::proj::operation::GridDescription, std::allocator<osgeo::proj::operation::GridDescription>>::_Vector_impl" = type { %"struct.std::_Vector_base<osgeo::proj::operation::GridDescription, std::allocator<osgeo::proj::operation::GridDescription>>::_Vector_impl_data" }
%"struct.std::_Vector_base<osgeo::proj::operation::GridDescription, std::allocator<osgeo::proj::operation::GridDescription>>::_Vector_impl_data" = type { ptr, ptr, ptr }
%"class.std::vector.3" = type { %"struct.std::_Vector_base.4" }
%"struct.std::_Vector_base.4" = type { %"struct.std::_Vector_base<PJCoordOperation, std::allocator<PJCoordOperation>>::_Vector_impl" }
%"struct.std::_Vector_base<PJCoordOperation, std::allocator<PJCoordOperation>>::_Vector_impl" = type { %"struct.std::_Vector_base<PJCoordOperation, std::allocator<PJCoordOperation>>::_Vector_impl_data" }
%"struct.std::_Vector_base<PJCoordOperation, std::allocator<PJCoordOperation>>::_Vector_impl_data" = type { ptr, ptr, ptr }
%"struct.(anonymous namespace)::pj_sch_data" = type { double, double, double, double, [9 x double], [3 x double], double, ptr, ptr }

; Function Attrs: mustprogress uwtable
define internal noundef ptr @_ZL17pj_sch_destructorP8PJconstsi(ptr noundef %0, i32 noundef %1) #0 {
  %3 = alloca ptr, align 8
  %4 = alloca ptr, align 8
  %5 = alloca i32, align 4
  %6 = alloca ptr, align 8
  store ptr %0, ptr %4, align 8, !tbaa !3
  store i32 %1, ptr %5, align 4, !tbaa !53
  %7 = load ptr, ptr %4, align 8, !tbaa !3
  %8 = icmp eq ptr null, %7
  br i1 %8, label %9, label %10

9:                                                ; preds = %2
  store ptr null, ptr %3, align 8
  br label %53

10:                                               ; preds = %2
  call void @llvm.lifetime.start.p0(i64 8, ptr %6) #8
  %11 = load ptr, ptr %4, align 8, !tbaa !3
  %12 = getelementptr inbounds nuw %struct.PJconsts, ptr %11, i32 0, i32 11
  %13 = load ptr, ptr %12, align 8, !tbaa !43
  store ptr %13, ptr %6, align 8, !tbaa !41
  %14 = load ptr, ptr %6, align 8, !tbaa !41
  %15 = icmp ne ptr %14, null
  br i1 %15, label %16, label %49

16:                                               ; preds = %10
  %17 = load ptr, ptr %6, align 8, !tbaa !41
  %18 = getelementptr inbounds nuw %"struct.(anonymous namespace)::pj_sch_data", ptr %17, i32 0, i32 7
  %19 = load ptr, ptr %18, align 8, !tbaa !54
  %20 = icmp ne ptr %19, null
  br i1 %20, label %21, label %32

21:                                               ; preds = %16
  %22 = load ptr, ptr %6, align 8, !tbaa !41
  %23 = getelementptr inbounds nuw %"struct.(anonymous namespace)::pj_sch_data", ptr %22, i32 0, i32 7
  %24 = load ptr, ptr %23, align 8, !tbaa !54
  %25 = getelementptr inbounds nuw %struct.PJconsts, ptr %24, i32 0, i32 19
  %26 = load ptr, ptr %25, align 8, !tbaa !44
  %27 = load ptr, ptr %6, align 8, !tbaa !41
  %28 = getelementptr inbounds nuw %"struct.(anonymous namespace)::pj_sch_data", ptr %27, i32 0, i32 7
  %29 = load ptr, ptr %28, align 8, !tbaa !54
  %30 = load i32, ptr %5, align 4, !tbaa !53
  %31 = call noundef ptr %26(ptr noundef %29, i32 noundef %30)
  br label %32

32:                                               ; preds = %21, %16
  %33 = load ptr, ptr %6, align 8, !tbaa !41
  %34 = getelementptr inbounds nuw %"struct.(anonymous namespace)::pj_sch_data", ptr %33, i32 0, i32 8
  %35 = load ptr, ptr %34, align 8, !tbaa !55
  %36 = icmp ne ptr %35, null
  br i1 %36, label %37, label %48

37:                                               ; preds = %32
  %38 = load ptr, ptr %6, align 8, !tbaa !41
  %39 = getelementptr inbounds nuw %"struct.(anonymous namespace)::pj_sch_data", ptr %38, i32 0, i32 8
  %40 = load ptr, ptr %39, align 8, !tbaa !55
  %41 = getelementptr inbounds nuw %struct.PJconsts, ptr %40, i32 0, i32 19
  %42 = load ptr, ptr %41, align 8, !tbaa !44
  %43 = load ptr, ptr %6, align 8, !tbaa !41
  %44 = getelementptr inbounds nuw %"struct.(anonymous namespace)::pj_sch_data", ptr %43, i32 0, i32 8
  %45 = load ptr, ptr %44, align 8, !tbaa !55
  %46 = load i32, ptr %5, align 4, !tbaa !53
  %47 = call noundef ptr %42(ptr noundef %45, i32 noundef %46)
  br label %48

48:                                               ; preds = %37, %32
  br label %49

49:                                               ; preds = %48, %10
  %50 = load ptr, ptr %4, align 8, !tbaa !3
  %51 = load i32, ptr %5, align 4, !tbaa !53
  %52 = call noundef ptr @_Z21pj_default_destructorP8PJconstsi(ptr noundef %50, i32 noundef %51)
  store ptr %52, ptr %3, align 8
  call void @llvm.lifetime.end.p0(i64 8, ptr %6) #8
  br label %53

53:                                               ; preds = %49, %9
  %54 = load ptr, ptr %3, align 8
  ret ptr %54
}