; Function Attrs: mustprogress uwtable
define internal noundef ptr @_ZL17pj_sch_destructorP8PJconstsi(ptr noundef %0, i32 noundef %1) #0 {
  %3 = icmp eq ptr %0, null
  br i1 %3, label %23, label %4

4:                                                ; preds = %2
  %5 = getelementptr inbounds nuw i8, ptr %0, i64 88
  %6 = load ptr, ptr %5, align 8, !tbaa !40
  %.not = icmp eq ptr %6, null
  br i1 %.not, label %21, label %7

7:                                                ; preds = %4
  %8 = getelementptr inbounds nuw i8, ptr %6, i64 136
  %9 = load ptr, ptr %8, align 8, !tbaa !49
  %.not17 = icmp eq ptr %9, null
  br i1 %.not17, label %14, label %10

10:                                               ; preds = %7
  %11 = getelementptr inbounds nuw i8, ptr %9, i64 152
  %12 = load ptr, ptr %11, align 8, !tbaa !41
  %13 = tail call noundef ptr %12(ptr noundef nonnull %9, i32 noundef %1)
  br label %14

14:                                               ; preds = %10, %7
  %15 = getelementptr inbounds nuw i8, ptr %6, i64 144
  %16 = load ptr, ptr %15, align 8, !tbaa !50
  %.not18 = icmp eq ptr %16, null
  br i1 %.not18, label %21, label %17

17:                                               ; preds = %14
  %18 = getelementptr inbounds nuw i8, ptr %16, i64 152
  %19 = load ptr, ptr %18, align 8, !tbaa !41
  %20 = tail call noundef ptr %19(ptr noundef nonnull %16, i32 noundef %1)
  br label %21

21:                                               ; preds = %14, %17, %4
  %22 = tail call noundef ptr @_Z21pj_default_destructorP8PJconstsi(ptr noundef nonnull %0, i32 noundef %1)
  br label %23

23:                                               ; preds = %2, %21
  %.0 = phi ptr [ %22, %21 ], [ null, %2 ]
  ret ptr %.0
}